; ModuleID = '62/1482.c'
source_filename = "62/1482.c"
target datalayout = "e-m:e-p270:32:32-p271:32:32-p272:64:64-i64:64-f80:128-n8:16:32:64-S128"
target triple = "x86_64-pc-linux-gnu"

; Function Attrs: noinline nounwind uwtable
define dso_local i32 @main() #0 {
  %1 = alloca i32, align 4
  %2 = alloca i8*, align 8
  %3 = alloca i8*, align 8
  %4 = alloca i8*, align 8
  %5 = alloca i32, align 4
  store i32 0, i32* %1, align 4
  %6 = call noalias i8* @calloc(i64 1000, i64 1) #3
  store i8* %6, i8** %2, align 8
  %7 = load i8*, i8** %2, align 8
  %8 = call i32 (i8*, ...) bitcast (i32 (...)* @gets to i32 (i8*, ...)*)(i8* %7)
  store i32 0, i32* %5, align 4
  %9 = load i8*, i8** %2, align 8
  store i8* %9, i8** %4, align 8
  %10 = load i8*, i8** %2, align 8
  store i8* %10, i8** %3, align 8
  br label %11

11:                                               ; preds = %66, %0
  %12 = load i8*, i8** %3, align 8
  %13 = load i8, i8* %12, align 1
  %14 = sext i8 %13 to i32
  %15 = icmp ne i32 %14, 0
  br i1 %15, label %16, label %69

16:                                               ; preds = %11
  %17 = load i8*, i8** %3, align 8
  %18 = load i8, i8* %17, align 1
  %19 = sext i8 %18 to i32
  %20 = icmp eq i32 %19, 32
  br i1 %20, label %21, label %65

21:                                               ; preds = %16
  %22 = load i8*, i8** %3, align 8
  %23 = getelementptr inbounds i8, i8* %22, i64 -1
  %24 = load i8, i8* %23, align 1
  %25 = sext i8 %24 to i32
  %26 = icmp ne i32 %25, 32
  br i1 %26, label %27, label %29

27:                                               ; preds = %21
  %28 = load i8*, i8** %3, align 8
  store i8* %28, i8** %4, align 8
  br label %29

29:                                               ; preds = %27, %21
  %30 = load i32, i32* %5, align 4
  %31 = add nsw i32 %30, 1
  store i32 %31, i32* %5, align 4
  %32 = load i8*, i8** %3, align 8
  %33 = getelementptr inbounds i8, i8* %32, i64 1
  %34 = load i8, i8* %33, align 1
  %35 = sext i8 %34 to i32
  %36 = icmp ne i32 %35, 32
  br i1 %36, label %37, label %64

37:                                               ; preds = %29
  %38 = load i32, i32* %5, align 4
  %39 = icmp sgt i32 %38, 1
  br i1 %39, label %40, label %61

40:                                               ; preds = %37
  %41 = load i8*, i8** %4, align 8
  %42 = getelementptr inbounds i8, i8* %41, i64 1
  store i8* %42, i8** %3, align 8
  br label %43

43:                                               ; preds = %57, %40
  %44 = load i8*, i8** %3, align 8
  %45 = getelementptr inbounds i8, i8* %44, i64 -1
  %46 = load i8, i8* %45, align 1
  %47 = sext i8 %46 to i32
  %48 = icmp ne i32 %47, 0
  br i1 %48, label %49, label %60

49:                                               ; preds = %43
  %50 = load i8*, i8** %3, align 8
  %51 = load i32, i32* %5, align 4
  %52 = sext i32 %51 to i64
  %53 = getelementptr inbounds i8, i8* %50, i64 %52
  %54 = getelementptr inbounds i8, i8* %53, i64 -1
  %55 = load i8, i8* %54, align 1
  %56 = load i8*, i8** %3, align 8
  store i8 %55, i8* %56, align 1
  br label %57

57:                                               ; preds = %49
  %58 = load i8*, i8** %3, align 8
  %59 = getelementptr inbounds i8, i8* %58, i32 1
  store i8* %59, i8** %3, align 8
  br label %43

60:                                               ; preds = %43
  br label %61

61:                                               ; preds = %60, %37
  store i32 0, i32* %5, align 4
  %62 = load i8*, i8** %4, align 8
  %63 = getelementptr inbounds i8, i8* %62, i64 1
  store i8* %63, i8** %3, align 8
  br label %64

64:                                               ; preds = %61, %29
  br label %65

65:                                               ; preds = %64, %16
  br label %66

66:                                               ; preds = %65
  %67 = load i8*, i8** %3, align 8
  %68 = getelementptr inbounds i8, i8* %67, i32 1
  store i8* %68, i8** %3, align 8
  br label %11

69:                                               ; preds = %11
  %70 = load i8*, i8** %2, align 8
  %71 = call i32 @puts(i8* %70)
  %72 = load i8*, i8** %2, align 8
  call void @free(i8* %72) #3
  ret i32 0
}

; Function Attrs: nounwind
declare dso_local noalias i8* @calloc(i64, i64) #1

declare dso_local i32 @gets(...) #2

declare dso_local i32 @puts(i8*) #2

; Function Attrs: nounwind
declare dso_local void @free(i8*) #1


!llvm.module.flags = !{!0}
!llvm.ident = !{!1}

!0 = !{i32 1, !"wchar_size", i32 4}
!1 = !{!"clang version 10.0.0-4ubuntu1 "}
